; Function Attrs: mustprogress uwtable
define dso_local noundef ptr @_ZNK7AstNode12findBitDTypeEii8VSigning(ptr nocapture noundef nonnull readonly align 8 dereferenceable(152) %0, i32 noundef %1, i32 noundef %2, i8 %3) local_unnamed_addr #4 align 2 {
  %5 = load ptr, ptr @v3Global, align 8
  %6 = getelementptr inbounds i8, ptr %5, i64 160
  %7 = load ptr, ptr %6, align 8
  %8 = getelementptr inbounds i8, ptr %0, i64 88
  %9 = load ptr, ptr %8, align 8
  %10 = tail call noundef ptr @_ZN12AstTypeTable17findLogicBitDTypeEP8FileLine14VBasicDTypeKwdii8VSigning(ptr noundef nonnull align 8 dereferenceable(448) %7, ptr noundef %9, i8 1, i32 noundef %1, i32 noundef %2, i8 %3)
  ret ptr %10
}